; Function Attrs: nounwind uwtable
define void @dt_camctl_unregister_listener(ptr noundef %0, ptr noundef %1) local_unnamed_addr #0 {
  %3 = getelementptr inbounds nuw i8, ptr %0, i64 40
  %4 = tail call i32 @pthread_mutex_lock(ptr noundef nonnull %3) #15
  %5 = load i32, ptr getelementptr inbounds nuw (i8, ptr @darktable, i64 8), align 8, !tbaa !19
  %6 = and i32 %5, 32
  %.not = icmp eq i32 %6, 0
  br i1 %.not, label %8, label %7

7:                                                ; preds = %2
  tail call void (ptr, ...) @dt_print_ext(ptr noundef nonnull @.str.12, ptr noundef %1) #15
  br label %8

8:                                                ; preds = %7, %2
  %9 = getelementptr inbounds nuw i8, ptr %0, i64 88
  %10 = load ptr, ptr %9, align 8, !tbaa !97
  %11 = tail call ptr @g_list_remove(ptr noundef %10, ptr noundef %1) #15
  store ptr %11, ptr %9, align 8, !tbaa !97
  %12 = tail call i32 @pthread_mutex_unlock(ptr noundef nonnull %3) #15
  ret void
}